; Function Attrs: mustprogress nounwind uwtable
define void @_ZNK4LIEF12VectorStream5sliceEj(ptr dead_on_unwind noalias writable writeonly sret(%"class.std::unique_ptr.45") align 8 captures(none) initializes((0, 8)) %0, ptr noundef nonnull readonly align 8 captures(none) dereferenceable(56) %1, i32 noundef %2) local_unnamed_addr #1 align 2 {
  %4 = getelementptr inbounds nuw i8, ptr %1, i64 24
  %5 = getelementptr inbounds nuw i8, ptr %1, i64 32
  %6 = load ptr, ptr %5, align 8, !tbaa !35
  %7 = load ptr, ptr %4, align 8, !tbaa !32
  %8 = ptrtoint ptr %6 to i64
  %9 = ptrtoint ptr %7 to i64
  %10 = sub i64 %8, %9
  %11 = zext i32 %2 to i64
  tail call void @llvm.experimental.noalias.scope.decl(metadata !54)
  %12 = icmp ult i64 %10, %11
  br i1 %12, label %_ZNK4LIEF12VectorStream5sliceEjm.exit, label %13

13:                                               ; preds = %3
  %14 = sub nuw i64 %10, %11
  %15 = getelementptr inbounds nuw i8, ptr %7, i64 %11
  %16 = tail call noalias noundef nonnull dereferenceable(40) ptr @_Znwm(i64 noundef 40) #23, !noalias !54
  %17 = getelementptr inbounds nuw i8, ptr %16, i64 8
  store i64 0, ptr %17, align 8, !tbaa !46, !noalias !54
  %18 = getelementptr inbounds nuw i8, ptr %16, i64 16
  store i8 0, ptr %18, align 8, !tbaa !47, !noalias !54
  %19 = getelementptr inbounds nuw i8, ptr %16, i64 20
  store i32 3, ptr %19, align 4, !tbaa !48, !noalias !54
  store ptr getelementptr inbounds nuw inrange(-16, 104) (i8, ptr @_ZTVN4LIEF10SpanStreamE, i64 16), ptr %16, align 8, !tbaa !3, !noalias !54
  %20 = getelementptr inbounds nuw i8, ptr %16, i64 24
  store ptr %15, ptr %20, align 8, !tbaa !49, !noalias !54
  %21 = getelementptr inbounds nuw i8, ptr %16, i64 32
  store i64 %14, ptr %21, align 8, !tbaa !51, !noalias !54
  br label %_ZNK4LIEF12VectorStream5sliceEjm.exit

_ZNK4LIEF12VectorStream5sliceEjm.exit:            ; preds = %3, %13
  %storemerge.i = phi ptr [ %16, %13 ], [ null, %3 ]
  store ptr %storemerge.i, ptr %0, align 8, !tbaa !52, !alias.scope !54
  ret void
}